target datalayout = "e-m:e-p270:32:32-p271:32:32-p272:64:64-i64:64-i128:128-f80:128-n8:16:32:64-S128"
target triple = "x86_64-pc-linux-gnu"

%struct.yaml_mark_s = type { i64, i64, i64 }
%struct.yaml_parser_s = type { i32, ptr, i64, i32, %struct.yaml_mark_s, ptr, %struct.yaml_mark_s, ptr, ptr, %union.anon.9, i32, %struct.anon.11, i64, %struct.anon.12, i32, i64, %struct.yaml_mark_s, i32, i32, i32, %struct.anon.13, i64, i32, %struct.anon.14, i32, i32, %struct.anon.15, %struct.anon.16, i32, %struct.anon.17, %struct.anon.18, %struct.anon.19, ptr }
%union.anon.9 = type { %struct.anon.10 }
%struct.anon.10 = type { ptr, ptr, ptr }
%struct.anon.11 = type { ptr, ptr, ptr, ptr }
%struct.anon.12 = type { ptr, ptr, ptr, ptr }
%struct.anon.13 = type { ptr, ptr, ptr, ptr }
%struct.anon.14 = type { ptr, ptr, ptr }
%struct.anon.15 = type { ptr, ptr, ptr }
%struct.anon.16 = type { ptr, ptr, ptr }
%struct.anon.17 = type { ptr, ptr, ptr }
%struct.anon.18 = type { ptr, ptr, ptr }
%struct.anon.19 = type { ptr, ptr, ptr }

@.str.7 = private unnamed_addr constant [18 x i8] c"serializer_yaml.c\00", align 1
@.str.22 = private unnamed_addr constant [32 x i8] c"%s:%d %s: YAML parser error: %s\00", align 1
@__func__._parse_yaml = private unnamed_addr constant [12 x i8] c"_parse_yaml\00", align 1

; Function Attrs: nounwind uwtable
define internal i32 @_parse_yaml(ptr noundef %0, ptr noundef %1, ptr noundef %2) #0 {
  %4 = alloca i32, align 4
  %5 = alloca ptr, align 8
  %6 = alloca ptr, align 8
  %7 = alloca ptr, align 8
  %8 = alloca ptr, align 8
  %9 = alloca i32, align 4
  %10 = alloca i32, align 4
  store ptr %0, ptr %5, align 8
  store ptr %1, ptr %6, align 8
  store ptr %2, ptr %7, align 8
  call void @llvm.lifetime.start.p0(i64 8, ptr %8) #6
  %11 = load ptr, ptr %5, align 8
  store ptr %11, ptr %8, align 8
  call void @llvm.lifetime.start.p0(i64 4, ptr %9) #6
  store i32 0, ptr %9, align 4
  %12 = load ptr, ptr %7, align 8
  %13 = icmp ne ptr %12, null
  br i1 %13, label %15, label %14

14:                                               ; preds = %3
  store i32 -1, ptr %4, align 4
  store i32 1, ptr %10, align 4
  br label %33

15:                                               ; preds = %3
  %16 = load ptr, ptr %6, align 8
  %17 = call i32 @yaml_parser_initialize(ptr noundef %16)
  %18 = icmp ne i32 %17, 0
  br i1 %18, label %24, label %19

19:                                               ; preds = %15
  %20 = load ptr, ptr %6, align 8
  %21 = getelementptr inbounds nuw %struct.yaml_parser_s, ptr %20, i32 0, i32 1
  %22 = load ptr, ptr %21, align 8
  %23 = call i32 (ptr, ...) @slurm_error(ptr noundef @.str.22, ptr noundef @.str.7, i32 noundef 388, ptr noundef @__func__._parse_yaml, ptr noundef %22)
  store i32 -1, ptr %4, align 4
  store i32 1, ptr %10, align 4
  br label %33

24:                                               ; preds = %15
  %25 = load ptr, ptr %6, align 8
  %26 = load ptr, ptr %8, align 8
  %27 = load ptr, ptr %5, align 8
  %28 = call i64 @strlen(ptr noundef %27) #7
  call void @yaml_parser_set_input_string(ptr noundef %25, ptr noundef %26, i64 noundef %28)
  %29 = load ptr, ptr %6, align 8
  %30 = load ptr, ptr %7, align 8
  %31 = call i32 @_yaml_to_data(i32 noundef 0, ptr noundef %29, ptr noundef %30, ptr noundef %9)
  %32 = load i32, ptr %9, align 4
  store i32 %32, ptr %4, align 4
  store i32 1, ptr %10, align 4
  br label %33

33:                                               ; preds = %24, %19, %14
  call void @llvm.lifetime.end.p0(i64 4, ptr %9) #6
  call void @llvm.lifetime.end.p0(i64 8, ptr %8) #6
  %34 = load i32, ptr %4, align 4
  ret i32 %34
}

; Function Attrs: nounwind uwtable
define dso_local i32 @serialize_p_string_to_data(ptr noundef %0, ptr noundef %1, i64 noundef %2) #0 {
  %4 = alloca i32, align 4
  %5 = alloca ptr, align 8
  %6 = alloca ptr, align 8
  %7 = alloca i64, align 8
  %8 = alloca ptr, align 8
  %9 = alloca %struct.yaml_parser_s, align 8
  %10 = alloca i32, align 4
  store ptr %0, ptr %5, align 8
  store ptr %1, ptr %6, align 8
  store i64 %2, ptr %7, align 8
  call void @llvm.lifetime.start.p0(i64 8, ptr %8) #6
  call void @llvm.lifetime.start.p0(i64 480, ptr %9) #6
  %11 = load i64, ptr %7, align 8
  %12 = icmp ne i64 %11, 0
  br i1 %12, label %13, label %26

13:                                               ; preds = %3
  %14 = load ptr, ptr %6, align 8
  %15 = load i64, ptr %7, align 8
  %16 = getelementptr inbounds nuw i8, ptr %14, i64 %15
  %17 = load i8, ptr %16, align 1
  %18 = sext i8 %17 to i32
  %19 = icmp ne i32 %18, 0
  br i1 %19, label %20, label %27

20:                                               ; preds = %13
  %21 = load ptr, ptr %6, align 8
  %22 = load i64, ptr %7, align 8
  %23 = call i64 @strnlen(ptr noundef %21, i64 noundef %22) #7
  %24 = load i64, ptr %7, align 8
  %25 = icmp uge i64 %23, %24
  br i1 %25, label %26, label %27

26:                                               ; preds = %20, %3
  store i32 22, ptr %4, align 4
  store i32 1, ptr %10, align 4
  br label %45

27:                                               ; preds = %20, %13
  %28 = call ptr @data_new()
  store ptr %28, ptr %8, align 8
  %29 = load ptr, ptr %6, align 8
  %30 = load ptr, ptr %8, align 8
  %31 = call i32 @_parse_yaml(ptr noundef %29, ptr noundef %9, ptr noundef %30)
  %32 = icmp ne i32 %31, 0
  br i1 %32, label %33, label %42

33:                                               ; preds = %27
  br label %34

34:                                               ; preds = %33
  %35 = load ptr, ptr %8, align 8
  %36 = icmp ne ptr %35, null
  br i1 %36, label %37, label %39

37:                                               ; preds = %34
  %38 = load ptr, ptr %8, align 8
  call void @data_free(ptr noundef %38)
  br label %39

39:                                               ; preds = %37, %34
  store ptr null, ptr %8, align 8
  br label %40

40:                                               ; preds = %39
  br label %41

41:                                               ; preds = %40
  store i32 9202, ptr %4, align 4
  store i32 1, ptr %10, align 4
  br label %45

42:                                               ; preds = %27
  call void @yaml_parser_delete(ptr noundef %9)
  %43 = load ptr, ptr %8, align 8
  %44 = load ptr, ptr %5, align 8
  store ptr %43, ptr %44, align 8
  store i32 0, ptr %4, align 4
  store i32 1, ptr %10, align 4
  br label %45

45:                                               ; preds = %42, %41, %26
  call void @llvm.lifetime.end.p0(i64 480, ptr %9) #6
  call void @llvm.lifetime.end.p0(i64 8, ptr %8) #6
  %46 = load i32, ptr %4, align 4
  ret i32 %46
}