; Function Attrs: nounwind uwtable
define dso_local range(i32 0, 9203) i32 @serialize_p_string_to_data(ptr noundef writeonly captures(none) %0, ptr noundef %1, i64 noundef %2) local_unnamed_addr #0 {
  %4 = alloca i32, align 4
  %5 = alloca %struct.yaml_parser_s, align 8
  call void @llvm.lifetime.start.p0(i64 480, ptr nonnull %5) #6
  %.not = icmp eq i64 %2, 0
  br i1 %.not, label %23, label %6

6:                                                ; preds = %3
  %7 = getelementptr inbounds nuw i8, ptr %1, i64 %2
  %8 = load i8, ptr %7, align 1
  %.not14 = icmp eq i8 %8, 0
  br i1 %.not14, label %11, label %9

9:                                                ; preds = %6
  %10 = tail call i64 @strnlen(ptr noundef nonnull %1, i64 noundef %2) #7
  %.not15 = icmp ult i64 %10, %2
  br i1 %.not15, label %11, label %23

11:                                               ; preds = %9, %6
  %12 = tail call ptr @data_new() #6
  call void @llvm.lifetime.start.p0(i64 4, ptr nonnull %4) #6
  store i32 0, ptr %4, align 4
  %.not.i = icmp eq ptr %12, null
  br i1 %.not.i, label %.thread20, label %13

.thread20:                                        ; preds = %11
  call void @llvm.lifetime.end.p0(i64 4, ptr nonnull %4) #6
  br label %23

13:                                               ; preds = %11
  %14 = call i32 @yaml_parser_initialize(ptr noundef nonnull %5) #6
  %.not10.i = icmp eq i32 %14, 0
  br i1 %.not10.i, label %18, label %_parse_yaml.exit

_parse_yaml.exit:                                 ; preds = %13
  %15 = call i64 @strlen(ptr noundef nonnull dereferenceable(1) %1) #7
  call void @yaml_parser_set_input_string(ptr noundef nonnull %5, ptr noundef nonnull %1, i64 noundef %15) #6
  %16 = call fastcc i32 @_yaml_to_data(i32 noundef 0, ptr noundef nonnull %5, ptr noundef nonnull %12, ptr noundef %4)
  %17 = load i32, ptr %4, align 4
  call void @llvm.lifetime.end.p0(i64 4, ptr nonnull %4) #6
  %.not16 = icmp eq i32 %17, 0
  br i1 %.not16, label %22, label %.thread

18:                                               ; preds = %13
  %19 = getelementptr inbounds nuw i8, ptr %5, i64 8
  %20 = load ptr, ptr %19, align 8
  %21 = call i32 (ptr, ...) @slurm_error(ptr noundef nonnull @.str.22, ptr noundef nonnull @.str.7, i32 noundef 388, ptr noundef nonnull @__func__._parse_yaml, ptr noundef %20) #6
  call void @llvm.lifetime.end.p0(i64 4, ptr nonnull %4) #6
  br label %.thread

.thread:                                          ; preds = %_parse_yaml.exit, %18
  call void @data_free(ptr noundef nonnull %12) #6
  br label %23

22:                                               ; preds = %_parse_yaml.exit
  call void @yaml_parser_delete(ptr noundef nonnull %5) #6
  store ptr %12, ptr %0, align 8
  br label %23

23:                                               ; preds = %.thread20, %.thread, %3, %9, %22
  %.0 = phi i32 [ 0, %22 ], [ 22, %9 ], [ 22, %3 ], [ 9202, %.thread ], [ 9202, %.thread20 ]
  call void @llvm.lifetime.end.p0(i64 480, ptr nonnull %5) #6
  ret i32 %.0
}